target datalayout = "e-m:e-p270:32:32-p271:32:32-p272:64:64-i64:64-i128:128-f80:128-n8:16:32:64-S128"
target triple = "x86_64-pc-linux-gnu"

%struct.strvec = type { ptr, i64, i64 }
%struct.trace_key = type { ptr, i32, i8 }
%struct.strbuf = type { i64, i64, ptr }
%struct.child_process = type { %struct.strvec, %struct.strvec, i32, i32, i64, ptr, ptr, i32, i32, i32, ptr, i16, ptr }
%struct.parallel_processes = type { i64, ptr, ptr, i8, i64, %struct.strbuf }
%struct.run_process_parallel_opts = type { ptr, ptr, i64, i8, ptr, ptr, ptr, ptr }
%struct.anon.1 = type { i32, %struct.child_process, %struct.strbuf, ptr }

@.str = private unnamed_addr constant [14 x i8] c"run-command.c\00", align 1
@trace_default_key = external global %struct.trace_key, align 8
@stderr = external global ptr, align 8
@.str.75 = private unnamed_addr constant [29 x i8] c"run_processes_parallel: done\00", align 1

; Function Attrs: nounwind uwtable
define dso_local void @child_process_clear(ptr noundef %0) #0 {
  %2 = alloca ptr, align 8
  store ptr %0, ptr %2, align 8, !tbaa !4
  %3 = load ptr, ptr %2, align 8, !tbaa !4
  %4 = getelementptr inbounds nuw %struct.child_process, ptr %3, i32 0, i32 0
  call void @strvec_clear(ptr noundef %4)
  %5 = load ptr, ptr %2, align 8, !tbaa !4
  %6 = getelementptr inbounds nuw %struct.child_process, ptr %5, i32 0, i32 1
  call void @strvec_clear(ptr noundef %6)
  ret void
}

; Function Attrs: inlinehint nounwind uwtable
define internal i32 @trace_pass_fl(ptr noundef %0) #7 {
  %2 = alloca ptr, align 8
  store ptr %0, ptr %2, align 8, !tbaa !58
  %3 = load ptr, ptr %2, align 8, !tbaa !58
  %4 = getelementptr inbounds nuw %struct.trace_key, ptr %3, i32 0, i32 1
  %5 = load i32, ptr %4, align 8, !tbaa !60
  %6 = icmp ne i32 %5, 0
  br i1 %6, label %15, label %7

7:                                                ; preds = %1
  %8 = load ptr, ptr %2, align 8, !tbaa !58
  %9 = getelementptr inbounds nuw %struct.trace_key, ptr %8, i32 0, i32 2
  %10 = load i8, ptr %9, align 4
  %11 = and i8 %10, 1
  %12 = zext i8 %11 to i32
  %13 = icmp ne i32 %12, 0
  %14 = xor i1 %13, true
  br label %15

15:                                               ; preds = %7, %1
  %16 = phi i1 [ true, %1 ], [ %14, %7 ]
  %17 = zext i1 %16 to i32
  ret i32 %17
}

; Function Attrs: nounwind uwtable
define internal void @pp_cleanup(ptr noundef %0, ptr noundef %1) #0 {
  %3 = alloca ptr, align 8
  %4 = alloca ptr, align 8
  %5 = alloca i64, align 8
  store ptr %0, ptr %3, align 8, !tbaa !129
  store ptr %1, ptr %4, align 8, !tbaa !116
  br label %6

6:                                                ; preds = %2
  %7 = call i32 @trace_pass_fl(ptr noundef @trace_default_key)
  %8 = icmp ne i32 %7, 0
  br i1 %8, label %9, label %10

9:                                                ; preds = %6
  call void (ptr, i32, ptr, ptr, ...) @trace_printf_key_fl(ptr noundef @.str, i32 noundef 1562, ptr noundef @trace_default_key, ptr noundef @.str.75)
  br label %10

10:                                               ; preds = %9, %6
  br label %11

11:                                               ; preds = %10
  call void @llvm.lifetime.start.p0(i64 8, ptr %5) #13
  store i64 0, ptr %5, align 8, !tbaa !91
  br label %12

12:                                               ; preds = %32, %11
  %13 = load i64, ptr %5, align 8, !tbaa !91
  %14 = load ptr, ptr %4, align 8, !tbaa !116
  %15 = getelementptr inbounds nuw %struct.run_process_parallel_opts, ptr %14, i32 0, i32 2
  %16 = load i64, ptr %15, align 8, !tbaa !121
  %17 = icmp ult i64 %13, %16
  br i1 %17, label %19, label %18

18:                                               ; preds = %12
  call void @llvm.lifetime.end.p0(i64 8, ptr %5) #13
  br label %35

19:                                               ; preds = %12
  %20 = load ptr, ptr %3, align 8, !tbaa !129
  %21 = getelementptr inbounds nuw %struct.parallel_processes, ptr %20, i32 0, i32 1
  %22 = load ptr, ptr %21, align 8, !tbaa !125
  %23 = load i64, ptr %5, align 8, !tbaa !91
  %24 = getelementptr inbounds nuw %struct.anon.1, ptr %22, i64 %23
  %25 = getelementptr inbounds nuw %struct.anon.1, ptr %24, i32 0, i32 2
  call void @strbuf_release(ptr noundef %25)
  %26 = load ptr, ptr %3, align 8, !tbaa !129
  %27 = getelementptr inbounds nuw %struct.parallel_processes, ptr %26, i32 0, i32 1
  %28 = load ptr, ptr %27, align 8, !tbaa !125
  %29 = load i64, ptr %5, align 8, !tbaa !91
  %30 = getelementptr inbounds nuw %struct.anon.1, ptr %28, i64 %29
  %31 = getelementptr inbounds nuw %struct.anon.1, ptr %30, i32 0, i32 1
  call void @child_process_clear(ptr noundef %31)
  br label %32

32:                                               ; preds = %19
  %33 = load i64, ptr %5, align 8, !tbaa !91
  %34 = add i64 %33, 1
  store i64 %34, ptr %5, align 8, !tbaa !91
  br label %12, !llvm.loop !161

35:                                               ; preds = %18
  %36 = load ptr, ptr %3, align 8, !tbaa !129
  %37 = getelementptr inbounds nuw %struct.parallel_processes, ptr %36, i32 0, i32 1
  %38 = load ptr, ptr %37, align 8, !tbaa !125
  call void @free(ptr noundef %38) #13
  %39 = load ptr, ptr %3, align 8, !tbaa !129
  %40 = getelementptr inbounds nuw %struct.parallel_processes, ptr %39, i32 0, i32 2
  %41 = load ptr, ptr %40, align 8, !tbaa !134
  call void @free(ptr noundef %41) #13
  %42 = load ptr, ptr %3, align 8, !tbaa !129
  %43 = getelementptr inbounds nuw %struct.parallel_processes, ptr %42, i32 0, i32 5
  %44 = load ptr, ptr @stderr, align 8, !tbaa !155
  %45 = call i64 @strbuf_write(ptr noundef %43, ptr noundef %44)
  %46 = load ptr, ptr %3, align 8, !tbaa !129
  %47 = getelementptr inbounds nuw %struct.parallel_processes, ptr %46, i32 0, i32 5
  call void @strbuf_release(ptr noundef %47)
  call void @sigchain_pop_common()
  ret void
}