; Function Attrs: nounwind uwtable
define internal fastcc void @pp_cleanup(ptr noundef nonnull %0, ptr noundef readonly captures(none) %1) unnamed_addr #3 {
  %3 = load i32, ptr getelementptr inbounds nuw (i8, ptr @trace_default_key, i64 8), align 8, !tbaa !39
  %.not.i = icmp eq i32 %3, 0
  %4 = load i8, ptr getelementptr inbounds nuw (i8, ptr @trace_default_key, i64 12), align 4
  %5 = and i8 %4, 1
  %.not10 = icmp ne i8 %5, 0
  %.not = select i1 %.not.i, i1 %.not10, i1 false
  br i1 %.not, label %7, label %6

6:                                                ; preds = %2
  tail call void (ptr, i32, ptr, ptr, ...) @trace_printf_key_fl(ptr noundef nonnull @.str, i32 noundef 1562, ptr noundef nonnull @trace_default_key, ptr noundef nonnull @.str.75) #21
  br label %7

7:                                                ; preds = %2, %6
  %8 = getelementptr inbounds nuw i8, ptr %1, i64 16
  %9 = load i64, ptr %8, align 8, !tbaa !110
  %.not12 = icmp eq i64 %9, 0
  br i1 %.not12, label %._crit_edge, label %.lr.ph

.lr.ph:                                           ; preds = %7
  %10 = getelementptr inbounds nuw i8, ptr %0, i64 8
  br label %18

._crit_edge:                                      ; preds = %18, %7
  %11 = getelementptr inbounds nuw i8, ptr %0, i64 8
  %12 = load ptr, ptr %11, align 8, !tbaa !112
  tail call void @free(ptr noundef %12) #21
  %13 = getelementptr inbounds nuw i8, ptr %0, i64 16
  %14 = load ptr, ptr %13, align 8, !tbaa !114
  tail call void @free(ptr noundef %14) #21
  %15 = getelementptr inbounds nuw i8, ptr %0, i64 40
  %16 = load ptr, ptr @stderr, align 8, !tbaa !139
  %17 = tail call i64 @strbuf_write(ptr noundef nonnull %15, ptr noundef %16) #21
  tail call void @strbuf_release(ptr noundef nonnull %15) #21
  tail call void @sigchain_pop_common() #21
  ret void

18:                                               ; preds = %.lr.ph, %18
  %.011 = phi i64 [ 0, %.lr.ph ], [ %24, %18 ]
  %19 = load ptr, ptr %10, align 8, !tbaa !112
  %20 = getelementptr inbounds nuw %struct.anon.1, ptr %19, i64 %.011, i32 2
  tail call void @strbuf_release(ptr noundef nonnull %20) #21
  %21 = load ptr, ptr %10, align 8, !tbaa !112
  %22 = getelementptr inbounds nuw %struct.anon.1, ptr %21, i64 %.011, i32 1
  tail call void @strvec_clear(ptr noundef nonnull %22) #21
  %23 = getelementptr inbounds nuw i8, ptr %22, i64 24
  tail call void @strvec_clear(ptr noundef nonnull %23) #21
  %24 = add nuw i64 %.011, 1
  %25 = load i64, ptr %8, align 8, !tbaa !110
  %26 = icmp ult i64 %24, %25
  br i1 %26, label %18, label %._crit_edge, !llvm.loop !145
}